target datalayout = "e-m:e-p270:32:32-p271:32:32-p272:64:64-i64:64-i128:128-f80:128-n8:16:32:64-S128"
target triple = "x86_64-pc-linux-gnu"

@dcom_prefs_display_unmarshalling_details = global i32 0, align 4
@hf_dcom_array_size = internal global i32 0, align 4
@.str.145 = private unnamed_addr constant [1 x i8] zeroinitializer, align 1
@ett_dcom_lpwstr = internal global i32 0, align 4
@hf_dcom_max_count = internal global i32 0, align 4
@.str.147 = private unnamed_addr constant [2 x i8] c"\22\00", align 1
@.str.148 = private unnamed_addr constant [7 x i8] c"%s%s%s\00", align 1
@hf_dcom_byte_length = internal global i32 0, align 4

; Function Attrs: nounwind uwtable
define i32 @dissect_dcom_dcerpc_array_size(ptr noundef %0, i32 noundef %1, ptr noundef %2, ptr noundef %3, ptr noundef %4, ptr noundef %5, ptr noundef %6) #0 {
  %8 = alloca ptr, align 8
  %9 = alloca i32, align 4
  %10 = alloca ptr, align 8
  %11 = alloca ptr, align 8
  %12 = alloca ptr, align 8
  %13 = alloca ptr, align 8
  %14 = alloca ptr, align 8
  store ptr %0, ptr %8, align 8
  store i32 %1, ptr %9, align 4
  store ptr %2, ptr %10, align 8
  store ptr %3, ptr %11, align 8
  store ptr %4, ptr %12, align 8
  store ptr %5, ptr %13, align 8
  store ptr %6, ptr %14, align 8
  %15 = load i32, ptr @dcom_prefs_display_unmarshalling_details, align 4
  %16 = icmp ne i32 %15, 0
  br i1 %16, label %18, label %17

17:                                               ; preds = %7
  store ptr null, ptr %11, align 8
  br label %18

18:                                               ; preds = %17, %7
  %19 = load ptr, ptr %8, align 8
  %20 = load i32, ptr %9, align 4
  %21 = load ptr, ptr %10, align 8
  %22 = load ptr, ptr %11, align 8
  %23 = load ptr, ptr %12, align 8
  %24 = load ptr, ptr %13, align 8
  %25 = load i32, ptr @hf_dcom_array_size, align 4
  %26 = load ptr, ptr %14, align 8
  %27 = call i32 @dissect_ndr_uint32(ptr noundef %19, i32 noundef %20, ptr noundef %21, ptr noundef %22, ptr noundef %23, ptr noundef %24, i32 noundef %25, ptr noundef %26)
  store i32 %27, ptr %9, align 4
  %28 = load i32, ptr %9, align 4
  ret i32 %28
}

; Function Attrs: nounwind uwtable
define i32 @dissect_dcom_BSTR(ptr noundef %0, i32 noundef %1, ptr noundef %2, ptr noundef %3, ptr noundef %4, ptr noundef %5, i32 noundef %6, ptr noundef %7, i32 noundef %8) #0 {
  %10 = alloca i32, align 4
  %11 = alloca ptr, align 8
  %12 = alloca i32, align 4
  %13 = alloca ptr, align 8
  %14 = alloca ptr, align 8
  %15 = alloca ptr, align 8
  %16 = alloca ptr, align 8
  %17 = alloca i32, align 4
  %18 = alloca ptr, align 8
  %19 = alloca i32, align 4
  %20 = alloca i32, align 4
  %21 = alloca i32, align 4
  %22 = alloca i32, align 4
  %23 = alloca i32, align 4
  %24 = alloca i32, align 4
  %25 = alloca ptr, align 8
  %26 = alloca ptr, align 8
  %27 = alloca i32, align 4
  %28 = alloca i32, align 4
  store ptr %0, ptr %11, align 8
  store i32 %1, ptr %12, align 4
  store ptr %2, ptr %13, align 8
  store ptr %3, ptr %14, align 8
  store ptr %4, ptr %15, align 8
  store ptr %5, ptr %16, align 8
  store i32 %6, ptr %17, align 4
  store ptr %7, ptr %18, align 8
  store i32 %8, ptr %19, align 4
  %29 = load i32, ptr %12, align 4
  %30 = srem i32 %29, 4
  %31 = icmp ne i32 %30, 0
  br i1 %31, label %32, label %38

32:                                               ; preds = %9
  %33 = load i32, ptr %12, align 4
  %34 = srem i32 %33, 4
  %35 = sub i32 4, %34
  %36 = load i32, ptr %12, align 4
  %37 = add i32 %36, %35
  store i32 %37, ptr %12, align 4
  br label %38

38:                                               ; preds = %32, %9
  %39 = load ptr, ptr %14, align 8
  %40 = load i32, ptr %17, align 4
  %41 = load ptr, ptr %11, align 8
  %42 = load i32, ptr %12, align 4
  %43 = call ptr @proto_tree_add_string(ptr noundef %39, i32 noundef %40, ptr noundef %41, i32 noundef %42, i32 noundef 0, ptr noundef @.str.145)
  store ptr %43, ptr %25, align 8
  %44 = load ptr, ptr %25, align 8
  %45 = load i32, ptr @ett_dcom_lpwstr, align 4
  %46 = call ptr @proto_item_add_subtree(ptr noundef %44, i32 noundef %45)
  store ptr %46, ptr %26, align 8
  %47 = load i32, ptr %12, align 4
  store i32 %47, ptr %23, align 4
  %48 = load ptr, ptr %11, align 8
  %49 = load i32, ptr %12, align 4
  %50 = load ptr, ptr %13, align 8
  %51 = load ptr, ptr %26, align 8
  %52 = load ptr, ptr %15, align 8
  %53 = load ptr, ptr %16, align 8
  %54 = load i32, ptr @hf_dcom_max_count, align 4
  %55 = call i32 @dissect_ndr_uint32(ptr noundef %48, i32 noundef %49, ptr noundef %50, ptr noundef %51, ptr noundef %52, ptr noundef %53, i32 noundef %54, ptr noundef %20)
  store i32 %55, ptr %12, align 4
  %56 = load ptr, ptr %11, align 8
  %57 = load i32, ptr %12, align 4
  %58 = load ptr, ptr %13, align 8
  %59 = load ptr, ptr %26, align 8
  %60 = load ptr, ptr %15, align 8
  %61 = load ptr, ptr %16, align 8
  %62 = load i32, ptr @hf_dcom_byte_length, align 4
  %63 = call i32 @dissect_ndr_uint32(ptr noundef %56, i32 noundef %57, ptr noundef %58, ptr noundef %59, ptr noundef %60, ptr noundef %61, i32 noundef %62, ptr noundef %27)
  store i32 %63, ptr %12, align 4
  %64 = load ptr, ptr %11, align 8
  %65 = load i32, ptr %12, align 4
  %66 = load ptr, ptr %13, align 8
  %67 = load ptr, ptr %26, align 8
  %68 = load ptr, ptr %15, align 8
  %69 = load ptr, ptr %16, align 8
  %70 = call i32 @dissect_dcom_dcerpc_array_size(ptr noundef %64, i32 noundef %65, ptr noundef %66, ptr noundef %67, ptr noundef %68, ptr noundef %69, ptr noundef %21)
  store i32 %70, ptr %12, align 4
  %71 = load i32, ptr %12, align 4
  %72 = load i32, ptr %21, align 4
  %73 = mul i32 %72, 2
  %74 = add i32 %71, %73
  %75 = icmp ugt i32 %74, 2147483647
  br i1 %75, label %76, label %80

76:                                               ; preds = %38
  %77 = load ptr, ptr %18, align 8
  %78 = getelementptr i8, ptr %77, i64 0
  store i8 0, ptr %78, align 1
  %79 = load i32, ptr %12, align 4
  store i32 %79, ptr %10, align 4
  br label %121

80:                                               ; preds = %38
  %81 = load i32, ptr %12, align 4
  %82 = load i32, ptr %21, align 4
  %83 = mul i32 %82, 2
  %84 = add i32 %81, %83
  store i32 %84, ptr %24, align 4
  %85 = load i32, ptr %12, align 4
  store i32 %85, ptr %22, align 4
  %86 = load ptr, ptr %11, align 8
  %87 = load i32, ptr %12, align 4
  %88 = load i32, ptr %21, align 4
  %89 = mul i32 %88, 2
  %90 = load ptr, ptr %18, align 8
  %91 = load i32, ptr %19, align 4
  %92 = call i32 @dcom_tvb_get_nwstringz0(ptr noundef %86, i32 noundef %87, i32 noundef %89, ptr noundef %90, i32 noundef %91, ptr noundef %28)
  store i32 %92, ptr %12, align 4
  %93 = load ptr, ptr %26, align 8
  %94 = load i32, ptr %17, align 4
  %95 = load ptr, ptr %11, align 8
  %96 = load i32, ptr %22, align 4
  %97 = load i32, ptr %12, align 4
  %98 = load i32, ptr %22, align 4
  %99 = sub i32 %97, %98
  %100 = load ptr, ptr %18, align 8
  %101 = call ptr @proto_tree_add_string(ptr noundef %93, i32 noundef %94, ptr noundef %95, i32 noundef %96, i32 noundef %99, ptr noundef %100)
  %102 = load ptr, ptr %25, align 8
  %103 = load i32, ptr %28, align 4
  %104 = icmp ne i32 %103, 0
  %105 = select i1 %104, ptr @.str.147, ptr @.str.145
  %106 = load ptr, ptr %18, align 8
  %107 = load i32, ptr %28, align 4
  %108 = icmp ne i32 %107, 0
  %109 = select i1 %108, ptr @.str.147, ptr @.str.145
  call void (ptr, ptr, ...) @proto_item_append_text(ptr noundef %102, ptr noundef @.str.148, ptr noundef %105, ptr noundef %106, ptr noundef %109)
  %110 = load i32, ptr %24, align 4
  %111 = load i32, ptr %23, align 4
  %112 = icmp sle i32 %110, %111
  br i1 %112, label %113, label %115

113:                                              ; preds = %80
  %114 = load i32, ptr %12, align 4
  store i32 %114, ptr %10, align 4
  br label %121

115:                                              ; preds = %80
  %116 = load ptr, ptr %25, align 8
  %117 = load i32, ptr %24, align 4
  %118 = load i32, ptr %23, align 4
  %119 = sub i32 %117, %118
  call void @proto_item_set_len(ptr noundef %116, i32 noundef %119)
  %120 = load i32, ptr %24, align 4
  store i32 %120, ptr %10, align 4
  br label %121

121:                                              ; preds = %115, %113, %76
  %122 = load i32, ptr %10, align 4
  ret i32 %122
}