; Function Attrs: nounwind uwtable
define i32 @dissect_dcom_BSTR(ptr noundef %0, i32 noundef %1, ptr noundef %2, ptr noundef %3, ptr noundef %4, ptr noundef %5, i32 noundef %6, ptr noundef %7, i32 noundef %8) local_unnamed_addr #1 {
  %10 = alloca i32, align 4
  %11 = alloca i32, align 4
  %12 = alloca i32, align 4
  %13 = alloca i32, align 4
  %14 = srem i32 %1, 4
  %.not = icmp eq i32 %14, 0
  %reass.sub = add i32 %1, 4
  %15 = sub i32 %reass.sub, %14
  %.052 = select i1 %.not, i32 %1, i32 %15
  %16 = tail call ptr @proto_tree_add_string(ptr noundef %3, i32 noundef %6, ptr noundef %0, i32 noundef %.052, i32 noundef 0, ptr noundef nonnull @.str.145) #11
  %17 = load i32, ptr @ett_dcom_lpwstr, align 4
  %18 = tail call ptr @proto_item_add_subtree(ptr noundef %16, i32 noundef %17) #11
  %19 = load i32, ptr @hf_dcom_max_count, align 4
  %20 = call i32 @dissect_ndr_uint32(ptr noundef %0, i32 noundef %.052, ptr noundef %2, ptr noundef %18, ptr noundef %4, ptr noundef %5, i32 noundef %19, ptr noundef nonnull %10) #11
  %21 = load i32, ptr @hf_dcom_byte_length, align 4
  %22 = call i32 @dissect_ndr_uint32(ptr noundef %0, i32 noundef %20, ptr noundef %2, ptr noundef %18, ptr noundef %4, ptr noundef %5, i32 noundef %21, ptr noundef nonnull %12) #11
  %23 = load i32, ptr @dcom_prefs_display_unmarshalling_details, align 4
  %.not.i = icmp eq i32 %23, 0
  %spec.select.i = select i1 %.not.i, ptr null, ptr %18
  %24 = load i32, ptr @hf_dcom_array_size, align 4
  %25 = call i32 @dissect_ndr_uint32(ptr noundef %0, i32 noundef %22, ptr noundef %2, ptr noundef %spec.select.i, ptr noundef %4, ptr noundef %5, i32 noundef %24, ptr noundef nonnull %11) #11
  %26 = load i32, ptr %11, align 4
  %27 = shl i32 %26, 1
  %28 = add i32 %27, %25
  %29 = icmp slt i32 %28, 0
  br i1 %29, label %30, label %31

30:                                               ; preds = %9
  store i8 0, ptr %7, align 1
  br label %39

31:                                               ; preds = %9
  %32 = call fastcc i32 @dcom_tvb_get_nwstringz0(ptr noundef %0, i32 noundef %25, i32 noundef %27, ptr noundef %7, i32 noundef %8, ptr noundef %13)
  %33 = sub i32 %32, %25
  %34 = call ptr @proto_tree_add_string(ptr noundef %18, i32 noundef %6, ptr noundef %0, i32 noundef %25, i32 noundef %33, ptr noundef %7) #11
  %35 = load i32, ptr %13, align 4
  %.not55 = icmp eq i32 %35, 0
  %36 = select i1 %.not55, ptr @.str.145, ptr @.str.147
  call void (ptr, ptr, ...) @proto_item_append_text(ptr noundef %16, ptr noundef nonnull @.str.148, ptr noundef nonnull %36, ptr noundef %7, ptr noundef nonnull %36) #11
  %.not56 = icmp sgt i32 %28, %.052
  br i1 %.not56, label %37, label %39

37:                                               ; preds = %31
  %38 = sub i32 %28, %.052
  call void @proto_item_set_len(ptr noundef %16, i32 noundef %38) #11
  br label %39

39:                                               ; preds = %31, %37, %30
  %.0 = phi i32 [ %25, %30 ], [ %28, %37 ], [ %32, %31 ]
  ret i32 %.0
}